; ModuleID = '28/127.c'
source_filename = "28/127.c"
target datalayout = "e-m:e-p270:32:32-p271:32:32-p272:64:64-i64:64-f80:128-n8:16:32:64-S128"
target triple = "x86_64-pc-linux-gnu"

@.str = private unnamed_addr constant [4 x i8] c"%d,\00", align 1
@.str.1 = private unnamed_addr constant [3 x i8] c"%d\00", align 1

; Function Attrs: noinline nounwind uwtable
define dso_local void @main() #0 {
  %1 = alloca [2000 x i8], align 16
  %2 = alloca [300 x i32], align 16
  %3 = alloca i32, align 4
  %4 = alloca i32, align 4
  %5 = bitcast [300 x i32]* %2 to i8*
  call void @llvm.memset.p0i8.i64(i8* align 16 %5, i8 0, i64 1200, i1 false)
  %6 = getelementptr inbounds [2000 x i8], [2000 x i8]* %1, i64 0, i64 0
  %7 = call i32 (i8*, ...) bitcast (i32 (...)* @gets to i32 (i8*, ...)*)(i8* %6)
  store i32 0, i32* %3, align 4
  store i32 0, i32* %4, align 4
  br label %8

8:                                                ; preds = %51, %0
  %9 = load i32, i32* %3, align 4
  %10 = sext i32 %9 to i64
  %11 = getelementptr inbounds [2000 x i8], [2000 x i8]* %1, i64 0, i64 %10
  %12 = load i8, i8* %11, align 1
  %13 = sext i8 %12 to i32
  %14 = icmp ne i32 %13, 0
  br i1 %14, label %15, label %54

15:                                               ; preds = %8
  %16 = load i32, i32* %3, align 4
  %17 = sext i32 %16 to i64
  %18 = getelementptr inbounds [2000 x i8], [2000 x i8]* %1, i64 0, i64 %17
  %19 = load i8, i8* %18, align 1
  %20 = sext i8 %19 to i32
  %21 = icmp ne i32 %20, 32
  br i1 %21, label %22, label %31

22:                                               ; preds = %15
  %23 = load i32, i32* %4, align 4
  %24 = sext i32 %23 to i64
  %25 = getelementptr inbounds [300 x i32], [300 x i32]* %2, i64 0, i64 %24
  %26 = load i32, i32* %25, align 4
  %27 = add nsw i32 %26, 1
  %28 = load i32, i32* %4, align 4
  %29 = sext i32 %28 to i64
  %30 = getelementptr inbounds [300 x i32], [300 x i32]* %2, i64 0, i64 %29
  store i32 %27, i32* %30, align 4
  br label %50

31:                                               ; preds = %15
  %32 = load i32, i32* %3, align 4
  %33 = sext i32 %32 to i64
  %34 = getelementptr inbounds [2000 x i8], [2000 x i8]* %1, i64 0, i64 %33
  %35 = load i8, i8* %34, align 1
  %36 = sext i8 %35 to i32
  %37 = icmp eq i32 %36, 32
  br i1 %37, label %38, label %49

38:                                               ; preds = %31
  %39 = load i32, i32* %3, align 4
  %40 = sub nsw i32 %39, 1
  %41 = sext i32 %40 to i64
  %42 = getelementptr inbounds [2000 x i8], [2000 x i8]* %1, i64 0, i64 %41
  %43 = load i8, i8* %42, align 1
  %44 = sext i8 %43 to i32
  %45 = icmp ne i32 %44, 32
  br i1 %45, label %46, label %49

46:                                               ; preds = %38
  %47 = load i32, i32* %4, align 4
  %48 = add nsw i32 %47, 1
  store i32 %48, i32* %4, align 4
  br label %49

49:                                               ; preds = %46, %38, %31
  br label %50

50:                                               ; preds = %49, %22
  br label %51

51:                                               ; preds = %50
  %52 = load i32, i32* %3, align 4
  %53 = add nsw i32 %52, 1
  store i32 %53, i32* %3, align 4
  br label %8

54:                                               ; preds = %8
  store i32 0, i32* %3, align 4
  br label %55

55:                                               ; preds = %65, %54
  %56 = load i32, i32* %3, align 4
  %57 = load i32, i32* %4, align 4
  %58 = icmp slt i32 %56, %57
  br i1 %58, label %59, label %68

59:                                               ; preds = %55
  %60 = load i32, i32* %3, align 4
  %61 = sext i32 %60 to i64
  %62 = getelementptr inbounds [300 x i32], [300 x i32]* %2, i64 0, i64 %61
  %63 = load i32, i32* %62, align 4
  %64 = call i32 (i8*, ...) @printf(i8* getelementptr inbounds ([4 x i8], [4 x i8]* @.str, i64 0, i64 0), i32 %63)
  br label %65

65:                                               ; preds = %59
  %66 = load i32, i32* %3, align 4
  %67 = add nsw i32 %66, 1
  store i32 %67, i32* %3, align 4
  br label %55

68:                                               ; preds = %55
  %69 = load i32, i32* %4, align 4
  %70 = sext i32 %69 to i64
  %71 = getelementptr inbounds [300 x i32], [300 x i32]* %2, i64 0, i64 %70
  %72 = load i32, i32* %71, align 4
  %73 = call i32 (i8*, ...) @printf(i8* getelementptr inbounds ([3 x i8], [3 x i8]* @.str.1, i64 0, i64 0), i32 %72)
  ret void
}

; Function Attrs: argmemonly nounwind willreturn
declare void @llvm.memset.p0i8.i64(i8* nocapture writeonly, i8, i64, i1 immarg) #1

declare dso_local i32 @gets(...) #2

declare dso_local i32 @printf(i8*, ...) #2


!llvm.module.flags = !{!0}
!llvm.ident = !{!1}

!0 = !{i32 1, !"wchar_size", i32 4}
!1 = !{!"clang version 10.0.0-4ubuntu1 "}
